(dp0
S'0464d3e2-8844a22c'
p1
(dp2
S'duration'
p3
F20.056667
sS'nframes'
p4
I607
ssS'00091078-f32de4d2'
p5
(dp6
g3
F40.033333
sg4
I1209
ssS'02d478d1-e6811391'
p7
(dp8
g3
F40.096667
sg4
I1204
ssS'03d34d05-4a61174c'
p9
(dp10
g3
F40.096667
sg4
I1203
ssS'00495359-f020db82'
p11
(dp12
g3
F40.056667
sg4
I1195
ssS'0710389f-9edbc057'
p13
(dp14
g3
F20.081667
sg4
I607
ssS'06ec79fd-ad0188f8'
p15
(dp16
g3
F20.078333
sg4
I606
ssS'07eb68f5-cec4ea21'
p17
(dp18
g3
F20.181667
sg4
I605
ssS'06d1c4fe-4f416689'
p19
(dp20
g3
F40.096667
sg4
I1203
ssS'00495359-27ce9c7e'
p21
(dp22
g3
F20.408333
sg4
I617
ssS'025f49ef-0f6366f3'
p23
(dp24
g3
F40.338333
sg4
I1211
ssS'040aae19-9d710ac9'
p25
(dp26
g3
F40.09
sg4
I1203
ssS'07cacc74-db7b9283'
p27
(dp28
g3
F40.228333
sg4
I1208
ssS'00c12bd0-bb46e479'
p29
(dp30
g3
F40.363333
sg4
I1212
ssS'04a4137e-4b7d314e'
p31
(dp32
g3
F40.096667
sg4
I1204
ssS'023d8bc1-e56e7d8a'
p33
(dp34
g3
F40.271667
sg4
I1213
ssS'07eb68f5-252839d8'
p35
(dp36
g3
F20.115
sg4
I594
ssS'00091078-875c1f73'
p37
(dp38
g3
F40.02
sg4
I1208
ssS'015322bd-f004369e'
p39
(dp40
g3
F40.256667
sg4
I1214
ssS'04ff2dcc-d4f48c8a'
p41
(dp42
g3
F40.093333
sg4
I1211
ssS'00825605-9dcec7d0'
p43
(dp44
g3
F40.108333
sg4
I1197
ssS'0738f42e-fe0d895e'
p45
(dp46
g3
F40.335
sg4
I1214
ssS'018f06cd-834da3b3'
p47
(dp48
g3
F40.22
sg4
I1211
ssS'004071a4-a45d905f'
p49
(dp50
g3
F40.23
sg4
I1207
ssS'00516b75-7ac91661'
p51
(dp52
g3
F40.071667
sg4
I1203
ssS'02b7b9ee-af93f7be'
p53
(dp54
g3
F40.118333
sg4
I1203
ssS'007eddfc-528c4da4'
p55
(dp56
g3
F40.145
sg4
I1210
ssS'033dea13-5a8114fe'
p57
(dp58
g3
F20.303333
sg4
I602
ssS'067873fa-f069152c'
p59
(dp60
g3
F40.11
sg4
I1197
ssS'0593fea2-6471cf4e'
p61
(dp62
g3
F40.16
sg4
I1207
ssS'0075a5b0-9a8d5dbb'
p63
(dp64
g3
F20.091667
sg4
I611
ssS'03c98179-6c0700e4'
p65
(dp66
g3
F20.348333
sg4
I609
ssS'00810e80-37641274'
p67
(dp68
g3
F40.13
sg4
I1209
ssS'06b1932a-5757cfcf'
p69
(dp70
g3
F40.096667
sg4
I1206
ssS'060f62bd-686c028e'
p71
(dp72
g3
F40.061667
sg4
I1204
ssS'05584a52-e5ee180a'
p73
(dp74
g3
F40.098333
sg4
I1203
ssS'066d6f37-6037f6cf'
p75
(dp76
g3
F40.253333
sg4
I1209
ssS'07184fbb-061caa74'
p77
(dp78
g3
F40.13
sg4
I1205
ssS'0315cc1f-d0c40c17'
p79
(dp80
g3
F40.046667
sg4
I1203
ssS'0672c229-e9497c41'
p81
(dp82
g3
F20.065
sg4
I592
ssS'02d338b7-6f55a2d8'
p83
(dp84
g3
F40.213333
sg4
I1210
ssS'067ebca1-77c243c7'
p85
(dp86
g3
F20.34
sg4
I613
ssS'00391a82-d1428e56'
p87
(dp88
g3
F40.128333
sg4
I1209
ssS'064bad4e-ae51d829'
p89
(dp90
g3
F40.336667
sg4
I1215
ssS'076399f2-b3108b86'
p91
(dp92
g3
F40.096667
sg4
I1207
ssS'07184fbb-dda0b7cd'
p93
(dp94
g3
F40.265
sg4
I1212
ssS'05fa6494-2fad5381'
p95
(dp96
g3
F40.196667
sg4
I1210
ssS'02a88cd9-89d23c1c'
p97
(dp98
g3
F20.148333
sg4
I608
ssS'02d91e68-dffa6840'
p99
(dp100
g3
F40.163333
sg4
I1209
ssS'00495359-1d04dd8a'
p101
(dp102
g3
F10.508333
sg4
I313
ssS'029556a0-0ec9fa6f'
p103
(dp104
g3
F40.193333
sg4
I1214
ssS'047c278b-452d36f8'
p105
(dp106
g3
F40.06
sg4
I1203
ssS'022bf1ed-b3675f44'
p107
(dp108
g3
F40.096667
sg4
I1209
ssS'0571873b-de675e01'
p109
(dp110
g3
F40.326667
sg4
I1201
ssS'02346f91-27a6b98b'
p111
(dp112
g3
F20.18
sg4
I611
ssS'061b081d-b5e37863'
p113
(dp114
g3
F40.08
sg4
I1209
ssS'01816d85-1e5196dd'
p115
(dp116
g3
F40.231667
sg4
I1211
ssS'022ba62d-3353f550'
p117
(dp118
g3
F40.061667
sg4
I1204
ssS'0675e448-b483aaa4'
p119
(dp120
g3
F20.148333
sg4
I607
ssS'02a0f142-1c6504df'
p121
(dp122
g3
F40.2
sg4
I1210
ssS'03935c73-98cac3ec'
p123
(dp124
g3
F40.065
sg4
I1206
ssS'00e11419-e4eeba84'
p125
(dp126
g3
F40.096667
sg4
I1204
ssS'01d7e66d-8d639849'
p127
(dp128
g3
F40.08
sg4
I1205
ssS'028a3713-d915c80e'
p129
(dp130
g3
F40.073333
sg4
I1207
ssS'038db692-a3659ab7'
p131
(dp132
g3
F20.185
sg4
I610
ssS'034ba984-81e22d48'
p133
(dp134
g3
F35.628333
sg4
I1073
ssS'06595ed1-6aa7c911'
p135
(dp136
g3
F40.146667
sg4
I1197
ssS'06ff7d61-58d5d14e'
p137
(dp138
g3
F20.131667
sg4
I609
ssS'014e76d7-afb481a3'
p139
(dp140
g3
F38.145
sg4
I1146
ssS'01e9deb7-ed388859'
p141
(dp142
g3
F40.063333
sg4
I1203
ssS'00a820ef-98a12e22'
p143
(dp144
g3
F40.095
sg4
I1203
ssS'06d54ae6-76749641'
p145
(dp146
g3
F40.163333
sg4
I1208
ssS'0718ab33-bbd7e0ae'
p147
(dp148
g3
F40.263333
sg4
I1211
ssS'0308ce2b-8fc462fd'
p149
(dp150
g3
F40.196667
sg4
I1209
ssS'00a820ef-2b98dcf5'
p151
(dp152
g3
F40.055
sg4
I1209
ssS'047e715f-81e81a28'
p153
(dp154
g3
F40.261667
sg4
I1209
ssS'009215e2-e67ccfb7'
p155
(dp156
g3
F40.188333
sg4
I1205
ssS'028584e7-6a14163e'
p157
(dp158
g3
F20.08
sg4
I610
ssS'07f87c9c-8a8d81ef'
p159
(dp160
g3
F40.241667
sg4
I1211
ssS'07f00d34-d171ea84'
p161
(dp162
g3
F40.146667
sg4
I1205
ssS'02a7e164-14ba1015'
p163
(dp164
g3
F40.065
sg4
I1202
ssS'02701fba-809c39f3'
p165
(dp166
g3
F40.108333
sg4
I1207
ssS'06fb4e9c-efadbbae'
p167
(dp168
g3
F20.255
sg4
I602
ssS'05b06a04-5d7141e0'
p169
(dp170
g3
F40.205
sg4
I1208
ssS'02e948bb-53fcbba0'
p171
(dp172
g3
F40.286667
sg4
I1202
ssS'0502de3f-95405511'
p173
(dp174
g3
F38.761667
sg4
I1166
ssS'026501c2-16c41a5d'
p175
(dp176
g3
F40.293333
sg4
I1210
ssS'03b58b4e-7fc6e32a'
p177
(dp178
g3
F20.281667
sg4
I614
ssS'030a6a6c-fca2979d'
p179
(dp180
g3
F40.195
sg4
I1211
ssS'016a63d6-582c4677'
p181
(dp182
g3
F40.063333
sg4
I1206
ssS'06f7a41e-c8b5c7c7'
p183
(dp184
g3
F40.226667
sg4
I1210
ssS'04056725-91d0bd08'
p185
(dp186
g3
F40.131667
sg4
I1204
ssS'006a7635-ec8fe02c'
p187
(dp188
g3
F40.141667
sg4
I1208
ssS'07d025f2-86b087d6'
p189
(dp190
g3
F40.28
sg4
I1215
ssS'0634e4d9-cbdf926d'
p191
(dp192
g3
F40.208333
sg4
I1212
ssS'05c1c47a-cb817b64'
p193
(dp194
g3
F20.131667
sg4
I611
ssS'0124dfa6-30a430dc'
p195
(dp196
g3
F40.088333
sg4
I1202
ssS'03df831f-c91ea298'
p197
(dp198
g3
F40.026667
sg4
I1202
ssS'0595227e-bf4ccdda'
p199
(dp200
g3
F40.33
sg4
I1209
ssS'07184fbb-33a15da2'
p201
(dp202
g3
F20.318333
sg4
I616
ssS'06257efc-812f6534'
p203
(dp204
g3
F40.13
sg4
I1203
ssS'01d25bbc-670b6caa'
p205
(dp206
g3
F40.328333
sg4
I1212
ssS'064bad4e-160c2ad1'
p207
(dp208
g3
F40.095
sg4
I1208
ssS'06fce5b8-efc1a0dd'
p209
(dp210
g3
F40.096667
sg4
I1205
ssS'06257efc-9039235e'
p211
(dp212
g3
F40.1
sg4
I1192
ssS'04095551-efe2622a'
p213
(dp214
g3
F40.161667
sg4
I1208
ssS'04629c39-1d564d8a'
p215
(dp216
g3
F40.195
sg4
I1205
ssS'0403a8cd-a9f22fd9'
p217
(dp218
g3
F40.326667
sg4
I1211
ssS'072876e5-c10bfc30'
p219
(dp220
g3
F20.148333
sg4
I609
ssS'07f87c9c-43370670'
p221
(dp222
g3
F40.096667
sg4
I1208
ssS'07058848-6862bfe4'
p223
(dp224
g3
F40.095
sg4
I1209
ssS'05584a52-687411b6'
p225
(dp226
g3
F40.096667
sg4
I1207
ssS'05584a52-730a88df'
p227
(dp228
g3
F40.128333
sg4
I1193
ssS'06727591-79344a7e'
p229
(dp230
g3
F40.13
sg4
I1206
ssS'067ebca1-8a3387bf'
p231
(dp232
g3
F20.25
sg4
I610
ssS'0480f92e-bddc6920'
p233
(dp234
g3
F40.336667
sg4
I1218
ssS'00dc5030-237e7f71'
p235
(dp236
g3
F20.348333
sg4
I609
ssS'06727591-f55ebbfa'
p237
(dp238
g3
F40.221667
sg4
I1212
ssS'007c01ea-ad9f940b'
p239
(dp240
g3
F20.32
sg4
I612
ssS'05e4d323-5e76c428'
p241
(dp242
g3
F40.061667
sg4
I1206
ssS'00268999-a4b8e39d'
p243
(dp244
g3
F40.186667
sg4
I1198
ssS'06ec79fd-a832f627'
p245
(dp246
g3
F40.26
sg4
I1213
ssS'05266828-a6ee9545'
p247
(dp248
g3
F40.23
sg4
I1209
ssS'0309a59f-a7bdd258'
p249
(dp250
g3
F40.073333
sg4
I1206
ssS'0193a01e-535b417a'
p251
(dp252
g3
F40.223333
sg4
I1207
ssS'07b1efc6-4e6ba1fd'
p253
(dp254
g3
F20.158333
sg4
I605
ssS'02d478d1-9ce5120d'
p255
(dp256
g3
F40.161667
sg4
I1212
ssS'05d45cf1-f9c00c3e'
p257
(dp258
g3
F20.448333
sg4
I613
ssS'026b9a11-f819c1b9'
p259
(dp260
g3
F40.163333
sg4
I1209
ssS'051a0fcc-c3b533f6'
p261
(dp262
g3
F20.19
sg4
I609
ssS'0502de3f-13d1dc8f'
p263
(dp264
g3
F40.133333
sg4
I1206
ssS'0723c4dd-fe5bd292'
p265
(dp266
g3
F40.06
sg4
I1201
ssS'0501cda3-cc74ad37'
p267
(dp268
g3
F40.14
sg4
I1212
ssS'0714456d-2648a0c9'
p269
(dp270
g3
F40.131667
sg4
I1208
ssS'059286c1-7419d52e'
p271
(dp272
g3
F40.163333
sg4
I1210
ssS'0289eba3-d1fd00fc'
p273
(dp274
g3
F20.481667
sg4
I613
ssS'05ca0197-6c0b4628'
p275
(dp276
g3
F40.05
sg4
I1216
ssS'04095551-ef1928db'
p277
(dp278
g3
F40.061667
sg4
I1206
ssS'022ff54c-3cb58ec1'
p279
(dp280
g3
F40.268333
sg4
I1214
ssS'0505c36e-579b416c'
p281
(dp282
g3
F40.146667
sg4
I1211
ssS'043026cb-2808c6fb'
p283
(dp284
g3
F40.331667
sg4
I1210
ssS'01705c36-8993db9f'
p285
(dp286
g3
F20.081667
sg4
I605
ssS'02aef18f-db06c5f9'
p287
(dp288
g3
F40.09
sg4
I1193
ssS'022ba62d-853f4ad1'
p289
(dp290
g3
F40.096667
sg4
I1209
ssS'0024b742-63ed30d7'
p291
(dp292
g3
F20.083333
sg4
I606
ssS'0070bc56-401304be'
p293
(dp294
g3
F20.348333
sg4
I616
ssS'038db692-241b4e37'
p295
(dp296
g3
F20.148333
sg4
I606
ssS'053dc1d6-29b58579'
p297
(dp298
g3
F40.096667
sg4
I1206
ssS'04327108-6fb3ab49'
p299
(dp300
g3
F20.146667
sg4
I607
ssS'06d501fd-31889467'
p301
(dp302
g3
F40.063333
sg4
I1199
ssS'06ff7d61-dc1c9107'
p303
(dp304
g3
F40.123333
sg4
I1203
ssS'031637c4-1d39b9e6'
p305
(dp306
g3
F40.128333
sg4
I1205
ssS'04b33c7e-df4fc4c8'
p307
(dp308
g3
F40.345
sg4
I1209
ssS'06f7a41e-a79002e3'
p309
(dp310
g3
F40.133333
sg4
I1202
ssS'06ff7d61-8cefb300'
p311
(dp312
g3
F40.095
sg4
I1211
ssS'06ec79fd-9f4cd0ba'
p313
(dp314
g3
F40.096667
sg4
I1204
ssS'00091078-84635cf2'
p315
(dp316
g3
F20.315
sg4
I606
ssS'00be7020-457a6db4'
p317
(dp318
g3
F20.315
sg4
I607
ssS'02c2c31c-d030d8b6'
p319
(dp320
g3
F40.226667
sg4
I1211
ssS'01ff4acd-b2311e18'
p321
(dp322
g3
F40.03
sg4
I1202
ssS'0104a3f0-9294818d'
p323
(dp324
g3
F40.288333
sg4
I1210
ssS'06d501fd-a9ffc960'
p325
(dp326
g3
F40.06
sg4
I1205
ssS'07184fbb-54f9d99d'
p327
(dp328
g3
F40.163333
sg4
I1209
ssS'07cacc74-61869ca0'
p329
(dp330
g3
F40.051667
sg4
I1206
ssS'03db1bc2-833ca88c'
p331
(dp332
g3
F40.096667
sg4
I1205
ssS'05acab14-b78b76c7'
p333
(dp334
g3
F40.293333
sg4
I1191
ssS'01e38013-dab56c86'
p335
(dp336
g3
F40.2
sg4
I1214
ssS'0308ce2b-1c804293'
p337
(dp338
g3
F20.033333
sg4
I591
ssS'052fd7cc-b5dee1de'
p339
(dp340
g3
F40.28
sg4
I1214
ssS'0710389f-7b28ff14'
p341
(dp342
g3
F20.026667
sg4
I601
ssS'041fb602-19f8495d'
p343
(dp344
g3
F40.13
sg4
I1210
ssS'0432d284-c924667e'
p345
(dp346
g3
F40.296667
sg4
I1210
ssS'05f073fb-c158d772'
p347
(dp348
g3
F20.148333
sg4
I610
ssS'067b4f84-172af845'
p349
(dp350
g3
F40.078333
sg4
I1208
ssS'0336de82-d8b4761a'
p351
(dp352
g3
F20.265
sg4
I613
ssS'02205e0f-20f9ad20'
p353
(dp354
g3
F40.195
sg4
I1205
ssS'029ad1d1-2f5ad804'
p355
(dp356
g3
F40.121667
sg4
I1203
ssS'0378d8dc-92df7b3e'
p357
(dp358
g3
F40.158333
sg4
I1207
ssS'06583aaf-bb7d4ce1'
p359
(dp360
g3
F19.748333
sg4
I588
ssS'0656c6ac-751578f2'
p361
(dp362
g3
F40.221667
sg4
I1212
ssS'07398e6d-65825072'
p363
(dp364
g3
F40.123333
sg4
I1205
ssS'002e6895-442e6bc1'
p365
(dp366
g3
F40.211667
sg4
I1199
ssS'073dc97d-bad8ed1d'
p367
(dp368
g3
F40.066667
sg4
I1205
ssS'077d7bbc-2dc66d22'
p369
(dp370
g3
F40.131667
sg4
I1209
ssS'03af3912-36636dd5'
p371
(dp372
g3
F40.226667
sg4
I1213
ssS'029e1042-66968a89'
p373
(dp374
g3
F40.086667
sg4
I1206
ssS'068cf5a2-878127f3'
p375
(dp376
g3
F40.095
sg4
I1207
ssS'02c2a4d8-f8b327d0'
p377
(dp378
g3
F40.096667
sg4
I1209
ssS'06844897-e035260a'
p379
(dp380
g3
F20.615
sg4
I617
ssS'05ac9eed-66967885'
p381
(dp382
g3
F40.173333
sg4
I1206
ssS'028584e7-9a2cf39f'
p383
(dp384
g3
F40.163333
sg4
I1208
ssS'08008acf-4c0ddc8b'
p385
(dp386
g3
F20.148333
sg4
I608
ssS'0048f391-8773ad9e'
p387
(dp388
g3
F40.363333
sg4
I1205
ssS'0229e497-f4eed706'
p389
(dp390
g3
F40.326667
sg4
I1210
ssS'06595ed1-9a6d5592'
p391
(dp392
g3
F40.211667
sg4
I1210
ssS'06ff7d61-48a6bc46'
p393
(dp394
g3
F40.043333
sg4
I1201
ssS'05584a52-61acd2bb'
p395
(dp396
g3
F40.065
sg4
I1202
ssS'04dd75bb-9507acc4'
p397
(dp398
g3
F40.27
sg4
I1200
ssS'010b0600-ae1f7be5'
p399
(dp400
g3
F40.096667
sg4
I1204
ssS'02162021-ff5ac522'
p401
(dp402
g3
F40.1
sg4
I1195
ssS'028b5d16-45f7e11a'
p403
(dp404
g3
F40.266667
sg4
I1208
ssS'055e339a-e98dd764'
p405
(dp406
g3
F40.123333
sg4
I1193
ssS'07184fbb-af89b759'
p407
(dp408
g3
F40.156667
sg4
I1212
ssS'05fa6494-8f436d04'
p409
(dp410
g3
F40.151667
sg4
I1196
ssS'04e6f6b8-67767837'
p411
(dp412
g3
F40.08
sg4
I1204
ssS'039f729b-9f86828d'
p413
(dp414
g3
F40.163333
sg4
I1208
ssS'030003dd-480d0868'
p415
(dp416
g3
F40.2
sg4
I1208
ssS'01ad8d8a-49bb0c93'
p417
(dp418
g3
F40.061667
sg4
I1210
ssS'0200d621-0aa31469'
p419
(dp420
g3
F20.243333
sg4
I612
ssS'03af3912-314e2022'
p421
(dp422
g3
F40.198333
sg4
I1205
ssS'047e715f-3e47a9aa'
p423
(dp424
g3
F40.23
sg4
I1211
ssS'011ad6b2-f34fd564'
p425
(dp426
g3
F40.078333
sg4
I1203
ssS'010b8a77-d02e84ce'
p427
(dp428
g3
F40.326667
sg4
I1212
ssS'0521fd41-c08687cf'
p429
(dp430
g3
F40.173333
sg4
I1206
ssS'043026cb-62b088fd'
p431
(dp432
g3
F40.136667
sg4
I1200
ssS'038db692-9c25743b'
p433
(dp434
g3
F20.081667
sg4
I607
ssS'0714456d-4cd21397'
p435
(dp436
g3
F40.08
sg4
I1209
ssS'04488604-f1028b71'
p437
(dp438
g3
F40.213333
sg4
I1210
ssS'02e06911-cb3fd71e'
p439
(dp440
g3
F20.185
sg4
I611
ssS'06ac374f-5c7f25cf'
p441
(dp442
g3
F20.183333
sg4
I606
ssS'00d1bafa-6701fcd9'
p443
(dp444
g3
F40.326667
sg4
I1216
ssS'07919504-a04fb42d'
p445
(dp446
g3
F40.095
sg4
I1208
ssS'07cc937c-6dbe4029'
p447
(dp448
g3
F20.548333
sg4
I615
ssS'06ebf6cd-79235c8d'
p449
(dp450
g3
F40.161667
sg4
I1205
ssS'01860bb9-5cc90ae0'
p451
(dp452
g3
F40.03
sg4
I1203
ssS'05c6dd3d-0ecc1cb7'
p453
(dp454
g3
F40.161667
sg4
I1209
ssS'07116ae0-e9b4fa4a'
p455
(dp456
g3
F40.26
sg4
I1207
ssS'0252f2b5-1f4c92f2'
p457
(dp458
g3
F40.065
sg4
I1205
ssS'0714456d-88d85a8c'
p459
(dp460
g3
F40.08
sg4
I1204
ssS'0010bf16-9ee17cd9'
p461
(dp462
g3
F40.033333
sg4
I1192
ssS'02c2a4d8-94d32b2f'
p463
(dp464
g3
F40.135
sg4
I1205
ssS'079cc21d-b9921e11'
p465
(dp466
g3
F40.23
sg4
I1208
ssS'0094ffe5-596e38bd'
p467
(dp468
g3
F40.201667
sg4
I1212
ssS'002a0e43-f6689b3f'
p469
(dp470
g3
F40.13
sg4
I1212
ssS'039c5dcd-a603673a'
p471
(dp472
g3
F20.11
sg4
I603
ssS'05266828-79a6ed22'
p473
(dp474
g3
F40.355
sg4
I1212
ssS'03cac642-35fdab83'
p475
(dp476
g3
F40.08
sg4
I1209
ssS'00b04b30-501822fa'
p477
(dp478
g3
F19.981667
sg4
I596
ssS'015cbf2d-1b0ecee0'
p479
(dp480
g3
F20.05
sg4
I603
ssS'03df831f-35275baa'
p481
(dp482
g3
F40.096667
sg4
I1203
ssS'06ec79fd-88116705'
p483
(dp484
g3
F40.161667
sg4
I1205
ssS'06cbfcda-8f691320'
p485
(dp486
g3
F40.095
sg4
I1203
ssS'0309a59f-1c34bcb8'
p487
(dp488
g3
F20.081667
sg4
I607
ssS'024839c5-669231df'
p489
(dp490
g3
F40.363333
sg4
I1211
ssS'015fcc2d-2d44d478'
p491
(dp492
g3
F20.181667
sg4
I608
ssS'0478d053-f5bb4831'
p493
(dp494
g3
F40.275
sg4
I1211
ssS'02346f91-aaa4e437'
p495
(dp496
g3
F40.261667
sg4
I1210
ssS'044c32cf-15c8cd24'
p497
(dp498
g3
F40.206667
sg4
I1213
ssS'067f8fb0-1e602c4b'
p499
(dp500
g3
F20.073333
sg4
I604
ssS'000e0252-8523a4a9'
p501
(dp502
g3
F40.063333
sg4
I1204
ssS'0474c68e-78a16303'
p503
(dp504
g3
F40.163333
sg4
I1206
ssS'0350600d-99bbb16e'
p505
(dp506
g3
F40.096667
sg4
I1208
ssS'05983eea-0ad7129e'
p507
(dp508
g3
F40.07
sg4
I1208
ssS'0569624e-1beb3b3c'
p509
(dp510
g3
F40.086667
sg4
I1203
ssS'031637c4-ce5604cc'
p511
(dp512
g3
F40.295
sg4
I1209
ssS'04904d8d-d7add19f'
p513
(dp514
g3
F40.086667
sg4
I1206
ssS'04488604-72f099d0'
p515
(dp516
g3
F40.2
sg4
I1206
ssS'02097021-b0c330b0'
p517
(dp518
g3
F40.151667
sg4
I1212
ssS'0034a363-24f318c4'
p519
(dp520
g3
F40.266667
sg4
I1214
ssS'02621ea2-399eaeb2'
p521
(dp522
g3
F40.096667
sg4
I1203
ssS'0252f2b5-afeb0f19'
p523
(dp524
g3
F20.178333
sg4
I600
ssS'07cacc74-aa13cc16'
p525
(dp526
g3
F40.055
sg4
I1199
ssS'06fb4e9c-fc5098a7'
p527
(dp528
g3
F20.256667
sg4
I610
ssS'025b2ded-47ac9b1d'
p529
(dp530
g3
F40.163333
sg4
I1207
ssS'05584a52-9725bd6b'
p531
(dp532
g3
F40.101667
sg4
I1202
ssS'023a07ea-89f817c3'
p533
(dp534
g3
F40.2
sg4
I1207
ssS'015af63d-df1ef690'
p535
(dp536
g3
F40.085
sg4
I1207
ssS'05584a52-63a8d88e'
p537
(dp538
g3
F40.128333
sg4
I1209
ssS'06b1932a-d60f771a'
p539
(dp540
g3
F40.146667
sg4
I1207
ssS'03c8da12-b57178f9'
p541
(dp542
g3
F40.186667
sg4
I1199
ssS'02f767b2-c435cd50'
p543
(dp544
g3
F40.096667
sg4
I1208
ssS'04961497-68988240'
p545
(dp546
g3
F40.28
sg4
I1215
ssS'0723dfcb-b54e0783'
p547
(dp548
g3
F40.198333
sg4
I1211
ssS'01638325-eb95ed3a'
p549
(dp550
g3
F40.105
sg4
I1203
ssS'07a3c8b9-1e5a432f'
p551
(dp552
g3
F20.198333
sg4
I612
ssS'02d478d1-42ca3cfb'
p553
(dp554
g3
F40.13
sg4
I1205
ssS'05911dc1-9990e9e7'
p555
(dp556
g3
F40.085
sg4
I1205
ssS'03afa5eb-b47a1969'
p557
(dp558
g3
F40.1
sg4
I1212
ssS'05e4d323-99f9fdd9'
p559
(dp560
g3
F40.26
sg4
I1213
ssS'07cacc74-5ce6b76a'
p561
(dp562
g3
F40.063333
sg4
I1199
ssS'031637c4-bc0eaa8e'
p563
(dp564
g3
F48.975
sg4
I1469
ssS'06ff7d61-45086936'
p565
(dp566
g3
F40.23
sg4
I1208
ssS'01c6a5ce-7dba0d93'
p567
(dp568
g3
F40.095
sg4
I1208
ssS'066557f7-d3c24cb9'
p569
(dp570
g3
F40.325
sg4
I1210
ssS'07b584c5-fff3b3bd'
p571
(dp572
g3
F40.345
sg4
I1216
ssS'0675e448-20f9d125'
p573
(dp574
g3
F20.148333
sg4
I609
ssS'02097021-295d2161'
p575
(dp576
g3
F40.03
sg4
I1202
ssS'06fb4e9c-42c4177c'
p577
(dp578
g3
F20.08
sg4
I607
ssS'029e1042-2639a5f8'
p579
(dp580
g3
F40.09
sg4
I1208
ssS'025b2ded-0e4f2732'
p581
(dp582
g3
F40.028333
sg4
I1202
ssS'03e6753f-a6371fe5'
p583
(dp584
g3
F40.2
sg4
I1212
ssS'02d478d1-9774e131'
p585
(dp586
g3
F40.218333
sg4
I1208
ssS'07184fbb-5d195420'
p587
(dp588
g3
F40.013333
sg4
I1205
ssS'00378858-c5f802ac'
p589
(dp590
g3
F40.13
sg4
I1207
ssS'02f101f6-803bdb72'
p591
(dp592
g3
F38.265
sg4
I1152
ssS'04629c39-faefdb18'
p593
(dp594
g3
F40.065
sg4
I1192
ssS'00091078-cedbfea7'
p595
(dp596
g3
F52.235
sg4
I1567
ssS'06a5fad4-3cbd31e3'
p597
(dp598
g3
F40.28
sg4
I1209
ssS'01638325-c0f998fd'
p599
(dp600
g3
F40.096667
sg4
I1209
ssS'066112a8-cdf390dc'
p601
(dp602
g3
F20.281667
sg4
I613
ssS'0032419c-7d20b300'
p603
(dp604
g3
F40.161667
sg4
I1207
ssS'07a3c8b9-bba3d553'
p605
(dp606
g3
F20.081667
sg4
I609
ssS'07afa351-d3181637'
p607
(dp608
g3
F47.45
sg4
I1423
ssS'02a0f142-c9c4b7d5'
p609
(dp610
g3
F20.115
sg4
I607
ssS'037795d6-d456ac0c'
p611
(dp612
g3
F40.163333
sg4
I1206
ssS'0289eba3-3b2c545e'
p613
(dp614
g3
F40.03
sg4
I1202
ssS'0406b065-a759da9c'
p615
(dp616
g3
F40.128333
sg4
I1203
ssS'043026cb-f72901db'
p617
(dp618
g3
F40.095
sg4
I1204
ssS'0024b742-83709bd4'
p619
(dp620
g3
F39.93
sg4
I1197
ssS'03e20a2f-c96c4ace'
p621
(dp622
g3
F40.08
sg4
I1208
ssS'07f00d34-abe4661a'
p623
(dp624
g3
F40.236667
sg4
I1211
ssS'01dc1bbe-b5109eb3'
p625
(dp626
g3
F40.071667
sg4
I1210
ssS'0066b72f-974f6883'
p627
(dp628
g3
F40.063333
sg4
I1205
ssS'02d478d1-8a21b23c'
p629
(dp630
g3
F40.096667
sg4
I1203
ssS'04a45d6d-2abd9c7b'
p631
(dp632
g3
F40.061667
sg4
I1207
ssS'07542d08-ad63ba4f'
p633
(dp634
g3
F20.115
sg4
I608
ssS'00f42f6b-5a20a4d2'
p635
(dp636
g3
F40.028333
sg4
I1202
ssS'01ff4acd-abd98a91'
p637
(dp638
g3
F40.163333
sg4
I1210
ssS'046becaa-8fc35912'
p639
(dp640
g3
F40.258333
sg4
I1202
ssS'06d065cc-2ee20dc0'
p641
(dp642
g3
F40.223333
sg4
I1209
ssS'028b5d16-be6486a6'
p643
(dp644
g3
F40.193333
sg4
I1210
ssS'02d478d1-e5ed0eb1'
p645
(dp646
g3
F40.026667
sg4
I1211
ssS'06e4a00e-b0887752'
p647
(dp648
g3
F40.288333
sg4
I1212
ssS'001bf08d-a419208a'
p649
(dp650
g3
F40.065
sg4
I1202
ssS'025b2ded-1b0c1607'
p651
(dp652
g3
F40.16
sg4
I1213
ssS'03a5976c-6d4c6239'
p653
(dp654
g3
F40.153333
sg4
I1204
ssS'03d17a3b-11512102'
p655
(dp656
g3
F40.088333
sg4
I1204
ssS'07482c65-a96de461'
p657
(dp658
g3
F40.13
sg4
I1210
ssS'06ebf6cd-0c129f12'
p659
(dp660
g3
F40.351667
sg4
I1211
ssS'01638325-07545909'
p661
(dp662
g3
F20.153333
sg4
I605
ssS'078075c6-029c7300'
p663
(dp664
g3
F40.195
sg4
I1211
ssS'03f6e688-415b77da'
p665
(dp666
g3
F40.163333
sg4
I1207
ssS'05f899e8-b72038aa'
p667
(dp668
g3
F40.065
sg4
I1203
ssS'00091078-7cff8ea6'
p669
(dp670
g3
F40.265
sg4
I1210
ssS'05983eea-b4fc86f9'
p671
(dp672
g3
F40.28
sg4
I1212
ssS'06cb522f-f1ff4334'
p673
(dp674
g3
F40.268333
sg4
I1205
ssS'03fd9aa1-78e4c146'
p675
(dp676
g3
F40.028333
sg4
I1204
ssS'045cb354-470666ec'
p677
(dp678
g3
F40.156667
sg4
I1211
ssS'0502de3f-c9529246'
p679
(dp680
g3
F40.061667
sg4
I1209
ssS'0501cda3-6d714e69'
p681
(dp682
g3
F40.08
sg4
I1209
ssS'01638325-901cd4f5'
p683
(dp684
g3
F20.285
sg4
I617
ssS'06e4a00e-346390c8'
p685
(dp686
g3
F40.096667
sg4
I1208
ssS'00d15d58-9197cde5'
p687
(dp688
g3
F40.106667
sg4
I1203
ssS'05584a52-d4064389'
p689
(dp690
g3
F40.196667
sg4
I1210
ssS'02346f91-9190074e'
p691
(dp692
g3
F20.131667
sg4
I606
ssS'002ab96a-a96704f9'
p693
(dp694
g3
F40.228333
sg4
I1214
ssS'043026cb-cf576c90'
p695
(dp696
g3
F40.068333
sg4
I1203
ssS'07cacc74-cd5434f6'
p697
(dp698
g3
F40.131667
sg4
I1204
ssS'06ef8fed-e38497d5'
p699
(dp700
g3
F20.148333
sg4
I608
ssS'04ede4bd-c03f27b1'
p701
(dp702
g3
F40.096667
sg4
I1208
ssS'07919504-3a57c8d3'
p703
(dp704
g3
F40.125
sg4
I1204
ssS'01f5086d-7820a48d'
p705
(dp706
g3
F20.251667
sg4
I614
ssS'03fd9aa1-4be42e2e'
p707
(dp708
g3
F40.265
sg4
I1216
ssS'0573f031-fe89a0d4'
p709
(dp710
g3
F40.346667
sg4
I1216
ssS'02a0f142-1b621396'
p711
(dp712
g3
F40.093333
sg4
I1204
ssS'04629c39-4a119705'
p713
(dp714
g3
F40.043333
sg4
I1196
ssS'0064d485-e1c17b2e'
p715
(dp716
g3
F40.2
sg4
I1214
ssS'007c01ea-63aa326c'
p717
(dp718
g3
F40.096667
sg4
I1205
ssS'0097d4ec-cf5e654b'
p719
(dp720
g3
F40.146667
sg4
I1209
ssS'01e6281b-5be21c14'
p721
(dp722
g3
F20.148333
sg4
I610
ssS'02346f91-a62c5e01'
p723
(dp724
g3
F20.188333
sg4
I610
ssS'035563ed-61c19e16'
p725
(dp726
g3
F40.136667
sg4
I1207
ssS'02d338b7-431f2064'
p727
(dp728
g3
F20.071667
sg4
I610
ssS'04076a65-8c1a44ba'
p729
(dp730
g3
F40.13
sg4
I1194
ssS'00091078-2bcd1ac9'
p731
(dp732
g3
F40.296667
sg4
I1213
ssS'02364369-bd3d1838'
p733
(dp734
g3
F40.163333
sg4
I1204
ssS'018aca44-b1213649'
p735
(dp736
g3
F40.163333
sg4
I1207
ssS'006bff20-752bd845'
p737
(dp738
g3
F40.088333
sg4
I1203
ssS'01b4e4b9-fc7a5264'
p739
(dp740
g3
F40.196667
sg4
I1211
ssS'0501cda3-45135081'
p741
(dp742
g3
F40.185
sg4
I1205
ssS'0344b71d-0063c015'
p743
(dp744
g3
F40.08
sg4
I1206
ssS'0478d053-88a940c9'
p745
(dp746
g3
F40.361667
sg4
I1217
ssS'028b5d16-af6a6275'
p747
(dp748
g3
F40.086667
sg4
I1207
ssS'06ac7da9-1d958101'
p749
(dp750
g3
F40.228333
sg4
I1211
ssS'01ab8b1e-a710cc65'
p751
(dp752
g3
F20.116667
sg4
I604
ssS'05584a52-fc4990b5'
p753
(dp754
g3
F40.046667
sg4
I1203
ssS'05584a52-5201a8c1'
p755
(dp756
g3
F40.113333
sg4
I1203
ssS'04488604-c87bc645'
p757
(dp758
g3
F40.28
sg4
I1210
ssS'02b7b9ee-7d7a2e00'
p759
(dp760
g3
F40.013333
sg4
I1203
ssS'075d08d3-8206da91'
p761
(dp762
g3
F40.096667
sg4
I1193
ssS'02b7b9ee-066c81db'
p763
(dp764
g3
F40.13
sg4
I1209
ssS'02f208e7-9949d1b7'
p765
(dp766
g3
F40.13
sg4
I1210
ssS'05a45cbf-ffa8ddde'
p767
(dp768
g3
F20.065
sg4
I608
ssS'018d962a-fd869a57'
p769
(dp770
g3
F40.096667
sg4
I1205
ssS'06d1e27a-417be915'
p771
(dp772
g3
F40.066667
sg4
I1196
ssS'07ef9f5f-e16d00e8'
p773
(dp774
g3
F40.09
sg4
I1205
ssS'05584a52-590d4e59'
p775
(dp776
g3
F40.213333
sg4
I1195
ssS'0526fe78-ad2264aa'
p777
(dp778
g3
F20.141667
sg4
I604
ssS'0571873b-faf718b2'
p779
(dp780
g3
F40.19
sg4
I1208
ssS'06a4abd2-cbbaaf3f'
p781
(dp782
g3
F40.301667
sg4
I1209
ssS'07398e6d-7b0dc522'
p783
(dp784
g3
F40.025
sg4
I1208
ssS'049c5d34-3610aeab'
p785
(dp786
g3
F20.065
sg4
I607
ssS'07116ae0-0f12a817'
p787
(dp788
g3
F40.23
sg4
I1209
ssS'02d478d1-ff9329ce'
p789
(dp790
g3
F40.155
sg4
I1194
ssS'04c6b8fa-4abd5e9f'
p791
(dp792
g3
F40.136667
sg4
I1209
ssS'01ab0f6d-b74b888d'
p793
(dp794
g3
F40.126667
sg4
I1208
ssS'0619414a-98e72c06'
p795
(dp796
g3
F40.2
sg4
I1211
ssS'06d981bc-d8411e3b'
p797
(dp798
g3
F40.136667
sg4
I1197
ssS'05e4d323-843db21c'
p799
(dp800
g3
F40.23
sg4
I1211
ssS'07a3c8b9-63776739'
p801
(dp802
g3
F20.21
sg4
I608
ssS'070383db-0363b1c7'
p803
(dp804
g3
F40.096667
sg4
I1207
ssS'0569fe1c-ffe5f96c'
p805
(dp806
g3
F40.068333
sg4
I1207
ssS'07184fbb-0a78715a'
p807
(dp808
g3
F20.031667
sg4
I605
ssS'02346f91-18e2acf4'
p809
(dp810
g3
F20.348333
sg4
I612
ssS'0723c4dd-6d50a276'
p811
(dp812
g3
F40.08
sg4
I1205
ssS'0501cda3-5c939ca7'
p813
(dp814
g3
F40.25
sg4
I1207
ssS'06d981bc-01758867'
p815
(dp816
g3
F40.095
sg4
I1204
ssS'00d79c0a-a2b85ca4'
p817
(dp818
g3
F40.263333
sg4
I1214
ssS'04278889-09b2e20d'
p819
(dp820
g3
F40.333333
sg4
I1213
ssS'015f23ad-5049df48'
p821
(dp822
g3
F40.146667
sg4
I1210
ssS'06668f7b-81a4f8e5'
p823
(dp824
g3
F20.415
sg4
I611
ssS'06924f46-493de064'
p825
(dp826
g3
F40.163333
sg4
I1211
ssS'07f17a1d-168e7ff8'
p827
(dp828
g3
F40.163333
sg4
I1204
ssS'04e9173a-d978b34d'
p829
(dp830
g3
F40.198333
sg4
I1206
ssS'00268999-9f6d5823'
p831
(dp832
g3
F40.161667
sg4
I1207
ssS'07184fbb-7b3e0527'
p833
(dp834
g3
F20.331667
sg4
I611
ssS'0088cf04-319858ad'
p835
(dp836
g3
F40.185
sg4
I1205
ssS'04348402-062a4eac'
p837
(dp838
g3
F40.24
sg4
I1199
ssS'06238b9d-364b8d6a'
p839
(dp840
g3
F38.161667
sg4
I1143
ssS'047e7f64-6df28989'
p841
(dp842
g3
F39.793333
sg4
I1198
ssS'0706e16c-8eb9233a'
p843
(dp844
g3
F40.1
sg4
I1210
ssS'061c075c-3a32cdce'
p845
(dp846
g3
F40.191667
sg4
I1205
ssS'0714456d-083ade57'
p847
(dp848
g3
F40.356667
sg4
I1215
ssS'01306b58-cf6faad9'
p849
(dp850
g3
F40.285
sg4
I1208
ssS'05acab14-e1a73018'
p851
(dp852
g3
F40.083333
sg4
I1187
ssS'05e261cb-ef8cd52f'
p853
(dp854
g3
F20.21
sg4
I612
ssS'01853f47-6975b587'
p855
(dp856
g3
F40.066667
sg4
I1203
ssS'05e5b952-73bfedb3'
p857
(dp858
g3
F40.063333
sg4
I1199
ssS'078a348a-d0c2ed97'
p859
(dp860
g3
F20.148333
sg4
I608
ssS'041bc149-5a655ba3'
p861
(dp862
g3
F40.078333
sg4
I1205
ssS'02fa8491-2a4967e3'
p863
(dp864
g3
F40.363333
sg4
I1212
ssS'02065c11-dbd5d35b'
p865
(dp866
g3
F20.058333
sg4
I606
ssS'0453391a-c5005d00'
p867
(dp868
g3
F40.196667
sg4
I1205
ssS'0309d11c-4f7cba1a'
p869
(dp870
g3
F20.211667
sg4
I607
ssS'07bf51f9-ae12b6bc'
p871
(dp872
g3
F40.196667
sg4
I1203
ssS'009215e2-62d79d70'
p873
(dp874
g3
F40.065
sg4
I1205
ssS'004071a4-ef4bf541'
p875
(dp876
g3
F40.221667
sg4
I1212
ssS'039f729b-17136fb4'
p877
(dp878
g3
F40.196667
sg4
I1210
ssS'01b0505f-5f564e84'
p879
(dp880
g3
F20.193333
sg4
I614
ssS'0252f2b5-741ac12c'
p881
(dp882
g3
F20.118333
sg4
I610
ssS'0675e448-ada913fc'
p883
(dp884
g3
F20.065
sg4
I608
ssS'0348a36b-deb80913'
p885
(dp886
g3
F20.215
sg4
I611
ssS'06cdf0b1-6fec3924'
p887
(dp888
g3
F40.23
sg4
I1208
ssS'04a4137e-ecd0ba6c'
p889
(dp890
g3
F40.245
sg4
I1202
ssS'07363609-5a0aaaf2'
p891
(dp892
g3
F40.028333
sg4
I1201
ssS'01dc1bbe-8919b3d8'
p893
(dp894
g3
F40.12
sg4
I1203
ssS'0370eddd-81051014'
p895
(dp896
g3
F20.148333
sg4
I607
ssS'06ac7da9-81ae9c1c'
p897
(dp898
g3
F20.081667
sg4
I608
ssS'01ec6367-7092c37b'
p899
(dp900
g3
F39.731667
sg4
I1192
ssS'0719a2ec-45b781f4'
p901
(dp902
g3
F40.155
sg4
I1207
ssS'05f38f06-96293250'
p903
(dp904
g3
F40.06
sg4
I1206
ssS'060f62bd-6c510f2f'
p905
(dp906
g3
F40.08
sg4
I1204
ssS'0183d6f9-806f64bd'
p907
(dp908
g3
F40.268333
sg4
I1210
ssS'01b4e4b9-e21fe0a3'
p909
(dp910
g3
F40.146667
sg4
I1206
ssS'079655cf-662de762'
p911
(dp912
g3
F40.095
sg4
I1203
ssS'0798a3a8-c4501e0f'
p913
(dp914
g3
F40.265
sg4
I1211
ssS'02eb43d9-ff055cbb'
p915
(dp916
g3
F40.145
sg4
I1208
ssS'05d30a18-19032166'
p917
(dp918
g3
F20.23
sg4
I607
ssS'0725b3e1-4d70a646'
p919
(dp920
g3
F40.013333
sg4
I1204
ssS'06a4abd2-bcb723c2'
p921
(dp922
g3
F40.08
sg4
I1205
ssS'02d478d1-23e4ee82'
p923
(dp924
g3
F40.031667
sg4
I1214
ssS'0798b865-3ebaa099'
p925
(dp926
g3
F40.096667
sg4
I1208
ssS'00391a82-8be5b76d'
p927
(dp928
g3
F40.333333
sg4
I1211
ssS'051b9d2c-339b8325'
p929
(dp930
g3
F40.33
sg4
I1210
ssS'01d373c7-45710346'
p931
(dp932
g3
F40.133333
sg4
I1209
ssS'014e76d7-a0c222bc'
p933
(dp934
g3
F40.265
sg4
I1208
ssS'028fbfb1-d42e4ac8'
p935
(dp936
g3
F40.06
sg4
I1207
ssS'009215e2-fd2472b8'
p937
(dp938
g3
F40.046667
sg4
I1203
ssS'0279c7c7-022be97f'
p939
(dp940
g3
F40.408333
sg4
I1218
ssS'043026cb-3a39d0b7'
p941
(dp942
g3
F40.178333
sg4
I1199
ssS'07f00d34-ee7e7f78'
p943
(dp944
g3
F40.23
sg4
I1211
ssS'017b02cb-8a659756'
p945
(dp946
g3
F20.255
sg4
I610
ssS'05faab83-7761d124'
p947
(dp948
g3
F20.048333
sg4
I598
ssS'070383db-c693da33'
p949
(dp950
g3
F20.146667
sg4
I607
ssS'011aeca1-fe5af665'
p951
(dp952
g3
F40.096667
sg4
I1208
ssS'03f0f5e6-ab7a74ed'
p953
(dp954
g3
F40.163333
sg4
I1210
ssS'02d478d1-84df3ff0'
p955
(dp956
g3
F40.066667
sg4
I1204
ssS'02f208e7-1bf4450f'
p957
(dp958
g3
F40.113333
sg4
I1197
ssS'018aca44-b898edc3'
p959
(dp960
g3
F19.063333
sg4
I579
ssS'0151f19f-827205c7'
p961
(dp962
g3
F40.256667
sg4
I1207
ssS'0711ab13-e486593d'
p963
(dp964
g3
F40.33
sg4
I1215
ssS'02065c11-0966f65d'
p965
(dp966
g3
F20.111667
sg4
I603
ssS'0315121e-d61f498f'
p967
(dp968
g3
F40.2
sg4
I1209
ssS'017078a5-baa7a0e4'
p969
(dp970
g3
F40.13
sg4
I1207
ssS'004071a4-049b7b85'
p971
(dp972
g3
F40.093333
sg4
I1209
ssS'07cacc74-cee72ba5'
p973
(dp974
g3
F40.213333
sg4
I1207
ssS'02a11306-ea3764fe'
p975
(dp976
g3
F40.265
sg4
I1208
ssS'0714456d-619b3a70'
p977
(dp978
g3
F40.09
sg4
I1197
ssS'04810e69-d5018754'
p979
(dp980
g3
F40.328333
sg4
I1215
ssS'07797fc1-3f6aee10'
p981
(dp982
g3
F40.128333
sg4
I1208
ssS'02086f50-c1e5d802'
p983
(dp984
g3
F20.05
sg4
I607
ssS'07363609-dd3a8645'
p985
(dp986
g3
F40.215
sg4
I1200
ssS'015fe6c9-e880c0d7'
p987
(dp988
g3
F40.263333
sg4
I1209
ssS'065992a2-5bef4d51'
p989
(dp990
g3
F40.265
sg4
I1212
ssS'01638325-3172dee4'
p991
(dp992
g3
F20.031667
sg4
I603
ssS'017b02cb-477b66fa'
p993
(dp994
g3
F40.331667
sg4
I1211
ssS'03e6753f-f5383961'
p995
(dp996
g3
F40.08
sg4
I1203
ssS'040c92cf-a442c0e9'
p997
(dp998
g3
F40.065
sg4
I1205
ssS'0379e014-116dc5cd'
p999
(dp1000
g3
F40.23
sg4
I1208
ssS'009215e2-ea063b28'
p1001
(dp1002
g3
F40.095
sg4
I1204
ssS'048be7ce-6de74c1d'
p1003
(dp1004
g3
F20.065
sg4
I605
ssS'00ca8821-db8033d5'
p1005
(dp1006
g3
F40.228333
sg4
I1210
ssS'0401de66-495d6358'
p1007
(dp1008
g3
F40.096667
sg4
I1208
ssS'07184fbb-bab6f8ce'
p1009
(dp1010
g3
F40.1
sg4
I1193
ssS'04488604-03cba446'
p1011
(dp1012
g3
F40.336667
sg4
I1215
ssS'0725b3e1-9c9078cb'
p1013
(dp1014
g3
F40.28
sg4
I1210
ssS'00091078-878e079e'
p1015
(dp1016
g3
F40.131667
sg4
I1208
ssS'0738f42e-734821e2'
p1017
(dp1018
g3
F40.328333
sg4
I1210
ssS'03cac642-016c2282'
p1019
(dp1020
g3
F40.235
sg4
I1210
ssS'06257efc-9aba5724'
p1021
(dp1022
g3
F40.23
sg4
I1207
ssS'0711ab13-698c82be'
p1023
(dp1024
g3
F40.156667
sg4
I1196
ssS'02d478d1-937f841f'
p1025
(dp1026
g3
F40.195
sg4
I1212
ssS'073dc97d-7a3e1436'
p1027
(dp1028
g3
F40.2
sg4
I1209
ssS'04629c39-69d7c08c'
p1029
(dp1030
g3
F40.111667
sg4
I1208
ssS'055e339a-1c6cb352'
p1031
(dp1032
g3
F40.163333
sg4
I1209
ssS'054575c4-3e39f3cf'
p1033
(dp1034
g3
F40.096667
sg4
I1203
ssS'05a93853-58c63f87'
p1035
(dp1036
g3
F40.085
sg4
I1205
ssS'011ad6b2-1dfff443'
p1037
(dp1038
g3
F40.096667
sg4
I1208
ssS'04488604-7db829ee'
p1039
(dp1040
g3
F40.145
sg4
I1209
ssS'02dff56b-4445bb03'
p1041
(dp1042
g3
F20.265
sg4
I615
ssS'047a188c-1ac1965c'
p1043
(dp1044
g3
F40.096667
sg4
I1208
ssS'01c3c73e-4279ee42'
p1045
(dp1046
g3
F39.128333
sg4
I1170
ssS'00268999-0b20ef00'
p1047
(dp1048
g3
F40.095
sg4
I1208
ssS'054a8fc0-6f54c1d9'
p1049
(dp1050
g3
F40.076667
sg4
I1193
ssS'06cb522f-dd1b9be7'
p1051
(dp1052
g3
F40.293333
sg4
I1203
ssS'0573f031-e8244dd0'
p1053
(dp1054
g3
F40.296667
sg4
I1215
ssS'00268999-cb063914'
p1055
(dp1056
g3
F39.723333
sg4
I1194
ssS'040dfa50-4082932d'
p1057
(dp1058
g3
F40.096667
sg4
I1207
ssS'05f194e3-369346cf'
p1059
(dp1060
g3
F20.083333
sg4
I610
ssS'00f7eac8-5193d600'
p1061
(dp1062
g3
F40.01
sg4
I1200
ssS'040fff88-4e31bfdd'
p1063
(dp1064
g3
F40.066667
sg4
I1207
ssS'07bfc402-3a259e9f'
p1065
(dp1066
g3
F40.23
sg4
I1211
ssS'0378d8dc-45d0c6c6'
p1067
(dp1068
g3
F39.596667
sg4
I1190
ssS'0798a3a8-5a64671d'
p1069
(dp1070
g3
F20.215
sg4
I608
ssS'06918135-10720a5a'
p1071
(dp1072
g3
F40.138333
sg4
I1205
ssS'02d478d1-cfb83eb8'
p1073
(dp1074
g3
F40.126667
sg4
I1196
ssS'036f07d5-92c52ed8'
p1075
(dp1076
g3
F40.26
sg4
I1216
ssS'02ff80b4-9b422cbd'
p1077
(dp1078
g3
F40.013333
sg4
I1203
ssS'0711ab13-56b31255'
p1079
(dp1080
g3
F40.155
sg4
I1204
ssS'03f9dbcd-3dbb2e40'
p1081
(dp1082
g3
F40.03
sg4
I1202
ssS'076399f2-ec0a8baa'
p1083
(dp1084
g3
F40.135
sg4
I1206
ssS'00f42f6b-699a498c'
p1085
(dp1086
g3
F40.096667
sg4
I1203
ssS'025b2ded-11363432'
p1087
(dp1088
g3
F40.275
sg4
I1210
ssS'076399f2-4c68835b'
p1089
(dp1090
g3
F40.213333
sg4
I1208
ssS'02346f91-2021ddc6'
p1091
(dp1092
g3
F20.251667
sg4
I610
ssS'0672c229-561d73fa'
p1093
(dp1094
g3
F40.333333
sg4
I1212
ssS'063b9c10-308a37ed'
p1095
(dp1096
g3
F40.091667
sg4
I1205
ssS'06d501fd-84390dd3'
p1097
(dp1098
g3
F40.096667
sg4
I1209
ssS'0062e803-38c0a33a'
p1099
(dp1100
g3
F20.215
sg4
I611
ssS'025b2ded-de608724'
p1101
(dp1102
g3
F40.096667
sg4
I1204
ssS'0451ce55-c7cdc6f2'
p1103
(dp1104
g3
F40.146667
sg4
I1196
ssS'02d478d1-94733b99'
p1105
(dp1106
g3
F40.14
sg4
I1211
ssS'07e49e2a-08324f2c'
p1107
(dp1108
g3
F40.23
sg4
I1207
ssS'06ff7d61-53ba5061'
p1109
(dp1110
g3
F40.195
sg4
I1212
ssS'0719a2ec-08bcf521'
p1111
(dp1112
g3
F40.151667
sg4
I1199
ssS'04076a65-57bf4de3'
p1113
(dp1114
g3
F40.096667
sg4
I1205
ssS'019c8305-3a3be0d6'
p1115
(dp1116
g3
F40.161667
sg4
I1206
ssS'0531d2f7-1feee72c'
p1117
(dp1118
g3
F20.853333
sg4
I631
ssS'0478d053-0eb9fe2f'
p1119
(dp1120
g3
F40.131667
sg4
I1210
ssS'05f194e3-bb62504c'
p1121
(dp1122
g3
F20.148333
sg4
I605
ssS'0092e44c-3b3dee4b'
p1123
(dp1124
g3
F40.08
sg4
I1212
ssS'059ec458-73d28f10'
p1125
(dp1126
g3
F20.341667
sg4
I616
ssS'05a93853-0d9f37e7'
p1127
(dp1128
g3
F40.02
sg4
I1208
ssS'07797fc1-8964710e'
p1129
(dp1130
g3
F20.286667
sg4
I611
ssS'07184fbb-2e67b768'
p1131
(dp1132
g3
F40.063333
sg4
I1202
ssS'07654a22-5880c393'
p1133
(dp1134
g3
F40.328333
sg4
I1213
ssS'0710389f-038050ae'
p1135
(dp1136
g3
F20.188333
sg4
I605
ssS'065992a2-8765cbc1'
p1137
(dp1138
g3
F40.063333
sg4
I1202
ssS'07afa351-cbfae483'
p1139
(dp1140
g3
F40.103333
sg4
I1207
ssS'0010bf16-a457685b'
p1141
(dp1142
g3
F40.096667
sg4
I1207
ssS'01128d0a-89cf45e0'
p1143
(dp1144
g3
F40.028333
sg4
I1201
ssS'06a93a2c-64127de3'
p1145
(dp1146
g3
F40.078333
sg4
I1205
ssS'029e1042-d985bee1'
p1147
(dp1148
g3
F40.09
sg4
I1207
ssS'0048f391-eae6a189'
p1149
(dp1150
g3
F40.23
sg4
I1208
ssS'02e6415e-8f3a97fe'
p1151
(dp1152
g3
F40.321667
sg4
I1207
ssS'078fe907-065ed380'
p1153
(dp1154
g3
F20.055
sg4
I601
ssS'01e6281b-7cc651df'
p1155
(dp1156
g3
F40.133333
sg4
I1208
ssS'03f7582f-e4e38a47'
p1157
(dp1158
g3
F20.281667
sg4
I607
ssS'02097021-183ed3b9'
p1159
(dp1160
g3
F40.146667
sg4
I1210
ssS'016c5aac-f5e49c84'
p1161
(dp1162
g3
F40.13
sg4
I1208
ssS'05584a52-a039fa45'
p1163
(dp1164
g3
F38.228333
sg4
I1150
ssS'0048f391-2c5344eb'
p1165
(dp1166
g3
F39.996667
sg4
I1201
ssS'05e4d323-6779ccbc'
p1167
(dp1168
g3
F40.066667
sg4
I1207
ssS'00091078-38ea90aa'
p1169
(dp1170
g3
F40.041667
sg4
I1201
ssS'04076a65-89793286'
p1171
(dp1172
g3
F39.301667
sg4
I1168
ssS'061ae121-ba8c91c2'
p1173
(dp1174
g3
F20.081667
sg4
I607
ssS'004071a4-4e8a363a'
p1175
(dp1176
g3
F40.078333
sg4
I1209
ssS'02065c11-194478e8'
p1177
(dp1178
g3
F20.05
sg4
I604
ssS'06c2ee7b-b7b17d24'
p1179
(dp1180
g3
F20.081667
sg4
I608
ssS'0793f9bb-6d2220bb'
p1181
(dp1182
g3
F40.29
sg4
I1216
ssS'05f41c11-94e167fc'
p1183
(dp1184
g3
F40.14
sg4
I1209
ssS'01306b58-a09ba743'
p1185
(dp1186
g3
F40.23
sg4
I1207
ssS'04d49b8a-f0e342cb'
p1187
(dp1188
g3
F40.235
sg4
I1209
ssS'08022699-d03af7f6'
p1189
(dp1190
g3
F40.23
sg4
I1210
ssS'06ec79fd-3351771d'
p1191
(dp1192
g3
F20.415
sg4
I617
ssS'07d06160-25326c3c'
p1193
(dp1194
g3
F20.18
sg4
I609
ssS'06661450-f52ed9ce'
p1195
(dp1196
g3
F38.928333
sg4
I1167
ssS'014070bf-f055aa80'
p1197
(dp1198
g3
F40.096667
sg4
I1211
ssS'076399f2-6b5a6d2a'
p1199
(dp1200
g3
F40.163333
sg4
I1207
ssS'031637c4-10cdaf09'
p1201
(dp1202
g3
F39.83
sg4
I1197
ssS'06924f46-983ee289'
p1203
(dp1204
g3
F40.096667
sg4
I1203
ssS'0277379d-ed078767'
p1205
(dp1206
g3
F40.088333
sg4
I1202
ssS'07e29820-efa9e7da'
p1207
(dp1208
g3
F40.108333
sg4
I1208
ssS'00488b40-0a8cf1a0'
p1209
(dp1210
g3
F40.328333
sg4
I1216
ssS'0378d8dc-62d8e85a'
p1211
(dp1212
g3
F40.013333
sg4
I1207
ssS'03a08882-3c5b8923'
p1213
(dp1214
g3
F40.363333
sg4
I1213
ssS'0372d8e2-03d838f3'
p1215
(dp1216
g3
F40.046667
sg4
I1206
ssS'07184fbb-2dc17016'
p1217
(dp1218
g3
F20.055
sg4
I607
ssS'0336de82-802d2437'
p1219
(dp1220
g3
F20.096667
sg4
I606
ssS'05cb8e1c-e064ca63'
p1221
(dp1222
g3
F40.195
sg4
I1211
ssS'0024b742-acbed4fb'
p1223
(dp1224
g3
F20.181667
sg4
I614
ssS'031637c4-b28f871a'
p1225
(dp1226
g3
F40.155
sg4
I1206
ssS'0104eb19-162abfea'
p1227
(dp1228
g3
F40.028333
sg4
I1204
ssS'06cb522f-98fb6b62'
p1229
(dp1230
g3
F40.201667
sg4
I1214
ssS'01e05a91-a336dc54'
p1231
(dp1232
g3
F40.161667
sg4
I1204
ssS'02d478d1-8c1d7d62'
p1233
(dp1234
g3
F40.163333
sg4
I1209
ssS'076399f2-e2bc0747'
p1235
(dp1236
g3
F40.24
sg4
I1207
ssS'02d478d1-0328a5bf'
p1237
(dp1238
g3
F40.163333
sg4
I1208
ssS'043026cb-a30ed3f0'
p1239
(dp1240
g3
F40.13
sg4
I1207
ssS'06836e19-0798237e'
p1241
(dp1242
g3
F40.085
sg4
I1206
ssS'02ac5861-c0b351d4'
p1243
(dp1244
g3
F40.08
sg4
I1208
ssS'07ad24e3-66c734d0'
p1245
(dp1246
g3
F40.095
sg4
I1205
ssS'06fb4e9c-f4fc93c7'
p1247
(dp1248
g3
F20.265
sg4
I610
ssS'05165073-5dab7d28'
p1249
(dp1250
g3
F40.101667
sg4
I1204
ssS'04076a65-052f6027'
p1251
(dp1252
g3
F40.096667
sg4
I1204
ssS'02364369-a90da2a5'
p1253
(dp1254
g3
F40.065
sg4
I1203
ssS'03049c98-2be9fd83'
p1255
(dp1256
g3
F40.063333
sg4
I1205
ssS'01df5158-81b61006'
p1257
(dp1258
g3
F40.17
sg4
I1208
ssS'066a3f28-bedf609f'
p1259
(dp1260
g3
F40.118333
sg4
I1196
ssS'045ba264-674ef27f'
p1261
(dp1262
g3
F40.073333
sg4
I1203
ssS'063753c7-71200365'
p1263
(dp1264
g3
F40.295
sg4
I1210
ssS'03d34d05-b6ceb2c7'
p1265
(dp1266
g3
F40.146667
sg4
I1207
ssS'039f729b-2ba56f17'
p1267
(dp1268
g3
F40.201667
sg4
I1211
ssS'009b0eb2-bbef939f'
p1269
(dp1270
g3
F40.026667
sg4
I1200
ssS'07ef9f5f-42c0ac31'
p1271
(dp1272
g3
F40.275
sg4
I1208
ssS'02191150-4615d36f'
p1273
(dp1274
g3
F40.153333
sg4
I1212
ssS'0004a4c0-d4df3a18'
p1275
(dp1276
g3
F20.121667
sg4
I594
ssS'04056725-14e1b11d'
p1277
(dp1278
g3
F40.33
sg4
I1199
ssS'04edbec0-95b33e2a'
p1279
(dp1280
g3
F19.881667
sg4
I594
ssS'06cb522f-f3b53ccf'
p1281
(dp1282
g3
F40.096667
sg4
I1203
ssS'019c8305-0bb153d0'
p1283
(dp1284
g3
F40.195
sg4
I1211
ssS'04e55a30-fc0b249b'
p1285
(dp1286
g3
F40.226667
sg4
I1209
ssS'057f2887-a81b8339'
p1287
(dp1288
g3
F40.203333
sg4
I1195
ssS'06ec79fd-ea7c5c86'
p1289
(dp1290
g3
F40.363333
sg4
I1215
ssS'06c58952-170a4d8f'
p1291
(dp1292
g3
F40.236667
sg4
I1207
ssS'02fc82b3-279906a9'
p1293
(dp1294
g3
F40.23
sg4
I1209
ssS'03106632-515213ca'
p1295
(dp1296
g3
F40.161667
sg4
I1204
ssS'01ad8b0e-623d48e5'
p1297
(dp1298
g3
F40.096667
sg4
I1209
ssS'0332729f-b63cda04'
p1299
(dp1300
g3
F40.03
sg4
I1206
ssS'021c4a16-f4d18785'
p1301
(dp1302
g3
F40.061667
sg4
I1203
ssS'066557f7-f2fe2ec0'
p1303
(dp1304
g3
F40.163333
sg4
I1211
ssS'02f208e7-904032da'
p1305
(dp1306
g3
F40.136667
sg4
I1204
ssS'04f64678-c012d1e3'
p1307
(dp1308
g3
F40.183333
sg4
I1205
ssS'0798a3a8-04635a44'
p1309
(dp1310
g3
F20.25
sg4
I609
ssS'07363609-da2e4ed9'
p1311
(dp1312
g3
F40.221667
sg4
I1205
ssS'02b7b9ee-60bfd818'
p1313
(dp1314
g3
F20.208333
sg4
I612
ssS'078fe907-795898f3'
p1315
(dp1316
g3
F20.271667
sg4
I610
ssS'01df5158-94ac0ebf'
p1317
(dp1318
g3
F20.481667
sg4
I613
ssS'0240eb48-4c78d3a1'
p1319
(dp1320
g3
F40.138333
sg4
I1208
ssS'03c8da12-98ab6099'
p1321
(dp1322
g3
F40.096667
sg4
I1205
ssS'04488604-2d268bc2'
p1323
(dp1324
g3
F40.17
sg4
I1201
ssS'026d68d3-bb2704f1'
p1325
(dp1326
g3
F40.098333
sg4
I1207
ssS'07a192de-e995e685'
p1327
(dp1328
g3
F40.29
sg4
I1213
ssS'043026cb-9d986c22'
p1329
(dp1330
g3
F20.215
sg4
I610
ssS'067f3361-39097fb1'
p1331
(dp1332
g3
F40.225
sg4
I1212
ssS'065992a2-ab48085d'
p1333
(dp1334
g3
F40.196667
sg4
I1207
ssS'023d0f3c-564e6d31'
p1335
(dp1336
g3
F40.265
sg4
I1208
ssS'002b562f-e0ac84fe'
p1337
(dp1338
g3
F40.098333
sg4
I1203
ssS'0124dfa6-385f1b58'
p1339
(dp1340
g3
F20.081667
sg4
I605
ssS'0415cf54-5f2f44fc'
p1341
(dp1342
g3
F20.281667
sg4
I607
ssS'047e732b-aa79a87d'
p1343
(dp1344
g3
F40.146667
sg4
I1206
ssS'05a45cbf-869f937e'
p1345
(dp1346
g3
F40.088333
sg4
I1208
ssS'00e42886-0ebbdb55'
p1347
(dp1348
g3
F20.315
sg4
I616
ssS'0432d284-b1121aaf'
p1349
(dp1350
g3
F40.096667
sg4
I1209
ssS'0786294e-634c696d'
p1351
(dp1352
g3
F40.096667
sg4
I1207
ssS'06f7a41e-7dcae57f'
p1353
(dp1354
g3
F40.065
sg4
I1194
ssS'078fe907-c39a62fa'
p1355
(dp1356
g3
F40.065
sg4
I1202
ssS'014b8fc3-532a0660'
p1357
(dp1358
g3
F40.056667
sg4
I1201
ssS'077192f8-4d59e803'
p1359
(dp1360
g3
F40.098333
sg4
I1207
ssS'05b2293c-e42b15f3'
p1361
(dp1362
g3
F36.455
sg4
I1097
ssS'064c08ff-88dbcdca'
p1363
(dp1364
g3
F40.093333
sg4
I1208
ssS'03c66a02-3deee2e5'
p1365
(dp1366
g3
F40.23
sg4
I1213
ssS'007eddfc-bcaeb35b'
p1367
(dp1368
g3
F40.096667
sg4
I1207
ssS'0070bc56-29bcc943'
p1369
(dp1370
g3
F20.131667
sg4
I606
ssS'002b485a-3f6603f2'
p1371
(dp1372
g3
F40.213333
sg4
I1203
ssS'057eea5e-7fe988ad'
p1373
(dp1374
g3
F20.118333
sg4
I608
ssS'05f073fb-21f47332'
p1375
(dp1376
g3
F20.116667
sg4
I605
ssS'01213e45-5edb70f0'
p1377
(dp1378
g3
F40.268333
sg4
I1213
ssS'036f3b5f-ee1521de'
p1379
(dp1380
g3
F40.04
sg4
I1201
ssS'07184fbb-bb4c67d2'
p1381
(dp1382
g3
F40.185
sg4
I1205
ssS'07cacc74-3673b8b8'
p1383
(dp1384
g3
F40.085
sg4
I1210
ssS'06b6c91e-f989a46e'
p1385
(dp1386
g3
F40.088333
sg4
I1205
ssS'005c4fd3-cb4d6287'
p1387
(dp1388
g3
F40.098333
sg4
I1190
ssS'076399f2-d397b12e'
p1389
(dp1390
g3
F40.028333
sg4
I1195
ssS'06db23de-8789538f'
p1391
(dp1392
g3
F40.026667
sg4
I1215
ssS'0309a59f-635b25c2'
p1393
(dp1394
g3
F40.08
sg4
I1211
ssS'02b7b9ee-4cd88e31'
p1395
(dp1396
g3
F40.195
sg4
I1208
ssS'031637c4-d2a9e7f0'
p1397
(dp1398
g3
F39.461667
sg4
I1183
ssS'02a17951-3d88d95e'
p1399
(dp1400
g3
F40.095
sg4
I1206
ssS'0665228f-1274f410'
p1401
(dp1402
g3
F28.438333
sg4
I854
ssS'03a3f4e6-caeaf05d'
p1403
(dp1404
g3
F40.335
sg4
I1210
ssS'009215e2-d6d2d61b'
p1405
(dp1406
g3
F40.296667
sg4
I1212
ssS'026501c2-48a89178'
p1407
(dp1408
g3
F40.163333
sg4
I1208
ssS'059841ce-121c8b06'
p1409
(dp1410
g3
F40.128333
sg4
I1209
ssS'034ebec5-b2b76478'
p1411
(dp1412
g3
F40.146667
sg4
I1198
ssS'0521fd41-40219907'
p1413
(dp1414
g3
F40.291667
sg4
I1208
ssS'02b4d710-c34ba68e'
p1415
(dp1416
g3
F40.18
sg4
I1205
ssS'00b1dfed-a89dbe2b'
p1417
(dp1418
g3
F40.196667
sg4
I1212
ssS'0075b179-8e09869a'
p1419
(dp1420
g3
F40.146667
sg4
I1211
ssS'03b58b4e-db439f75'
p1421
(dp1422
g3
F40.09
sg4
I1205
ssS'053da4e3-48ec49ba'
p1423
(dp1424
g3
F40.328333
sg4
I1211
ssS'0070bc56-4c0bb2d5'
p1425
(dp1426
g3
F20.148333
sg4
I609
ssS'00721168-56efa5c2'
p1427
(dp1428
g3
F40.173333
sg4
I1205
ssS'0339a42b-1e75ac9a'
p1429
(dp1430
g3
F40.263333
sg4
I1214
ssS'0329b7f6-7b36589b'
p1431
(dp1432
g3
F20.548333
sg4
I615
ssS'02b7b9ee-a76d996e'
p1433
(dp1434
g3
F20.183333
sg4
I608
ssS'05e5b952-70bc5050'
p1435
(dp1436
g3
F40.018333
sg4
I1208
ssS'07cacc74-48597e5e'
p1437
(dp1438
g3
F40.085
sg4
I1207
ssS'00d0f034-6d666f7b'
p1439
(dp1440
g3
F40.345
sg4
I1217
ssS'021c4a16-1c50e818'
p1441
(dp1442
g3
F40.106667
sg4
I1195
ssS'00b04b30-2e874876'
p1443
(dp1444
g3
F20.415
sg4
I611
ssS'014474aa-accf35e1'
p1445
(dp1446
g3
F20.045
sg4
I595
ssS'06f7a41e-ff3ff2b6'
p1447
(dp1448
g3
F40.096667
sg4
I1204
ssS'0603e6ca-1f32cf5c'
p1449
(dp1450
g3
F40.186667
sg4
I1210
ssS'03e19d79-c79b6a0f'
p1451
(dp1452
g3
F40.096667
sg4
I1208
ssS'026501c2-dfd80f2d'
p1453
(dp1454
g3
F40.08
sg4
I1208
ssS'0070bc56-49cf077c'
p1455
(dp1456
g3
F40.065
sg4
I1205
ssS'054b4492-b9ca5e57'
p1457
(dp1458
g3
F20.215
sg4
I613
ssS'025b2ded-e3ccf7f8'
p1459
(dp1460
g3
F40.066667
sg4
I1203
ssS'06ac7da9-b4b26aa1'
p1461
(dp1462
g3
F20.075
sg4
I610
ssS'064bad4e-e26c64f8'
p1463
(dp1464
g3
F40.135
sg4
I1208
ssS'06d065cc-bbf101e6'
p1465
(dp1466
g3
F40.363333
sg4
I1211
ssS'01128d0a-031e0a61'
p1467
(dp1468
g3
F40.03
sg4
I1202
ssS'03a08882-3e0f18d1'
p1469
(dp1470
g3
F40.223333
sg4
I1207
ssS'0252f2b5-2e69185a'
p1471
(dp1472
g3
F40.108333
sg4
I1194
ssS'0502de3f-912266b3'
p1473
(dp1474
g3
F40.253333
sg4
I1200
ssS'0340d277-0531808b'
p1475
(dp1476
g3
F20.298333
sg4
I609
ssS'00091078-59817bb0'
p1477
(dp1478
g3
F40.063333
sg4
I1204
ssS'02dde125-4a375cdb'
p1479
(dp1480
g3
F40.22
sg4
I1212
ssS'0569fe1c-288f0512'
p1481
(dp1482
g3
F40.06
sg4
I1205
ssS'01c3e19a-fbacb266'
p1483
(dp1484
g3
F40.115
sg4
I1193
ssS'06ea71d8-6f0a4db0'
p1485
(dp1486
g3
F40.213333
sg4
I1210
ssS'0569fe1c-23a8a28a'
p1487
(dp1488
g3
F40.22
sg4
I1202
ssS'01638325-504ab42d'
p1489
(dp1490
g3
F40.08
sg4
I1209
ssS'039f729b-93e4617b'
p1491
(dp1492
g3
F40.096667
sg4
I1203
ssS'06e4a00e-9ed56776'
p1493
(dp1494
g3
F40.225
sg4
I1209
ssS'02346f91-87969c22'
p1495
(dp1496
g3
F40.263333
sg4
I1207
ssS'07254f2e-32a98be9'
p1497
(dp1498
g3
F41.563333
sg4
I1251
ssS'064bad4e-b2a60955'
p1499
(dp1500
g3
F40.146667
sg4
I1205
ssS'034ba984-01a430f3'
p1501
(dp1502
g3
F40.058333
sg4
I1207
ssS'02b7b9ee-74fb981c'
p1503
(dp1504
g3
F39.528333
sg4
I1191
ssS'0048f391-e9bfaf62'
p1505
(dp1506
g3
F40.123333
sg4
I1213
ssS'0723c4dd-7a1168dc'
p1507
(dp1508
g3
F40.125
sg4
I1206
ssS'0521fd41-39bc52be'
p1509
(dp1510
g3
F40.131667
sg4
I1208
ssS'06ff7d61-3135eaa4'
p1511
(dp1512
g3
F40.296667
sg4
I1211
ssS'0714456d-eb7f5c38'
p1513
(dp1514
g3
F40.198333
sg4
I1206
ssS'05fa6494-51df9bd3'
p1515
(dp1516
g3
F40.128333
sg4
I1204
ssS'0714456d-f947f605'
p1517
(dp1518
g3
F40.23
sg4
I1209
ssS'06924f46-1708b96f'
p1519
(dp1520
g3
F40.146667
sg4
I1209
ssS'05266828-33538181'
p1521
(dp1522
g3
F20.265
sg4
I611
ssS'05be3c16-e85868fd'
p1523
(dp1524
g3
F40.23
sg4
I1209
ssS'02f95a54-6494531c'
p1525
(dp1526
g3
F40.013333
sg4
I1206
ssS'0715d80a-f3fd3da8'
p1527
(dp1528
g3
F20.415
sg4
I611
ssS'002ab96a-ea678692'
p1529
(dp1530
g3
F40.128333
sg4
I1204
ssS'067873fa-af75840e'
p1531
(dp1532
g3
F40.096667
sg4
I1203
ssS'06cbfcda-21eeb0d3'
p1533
(dp1534
g3
F40.18
sg4
I1205
ssS'04904d8d-0ab5c90a'
p1535
(dp1536
g3
F40.225
sg4
I1211
ssS'0070bc56-7d01076a'
p1537
(dp1538
g3
F40.116667
sg4
I1196
ssS'01440a35-e0b2f4a2'
p1539
(dp1540
g3
F20.415
sg4
I611
ssS'00e02d60-54df99d1'
p1541
(dp1542
g3
F40.351667
sg4
I1218
ssS'02f101f6-84cb482c'
p1543
(dp1544
g3
F40.028333
sg4
I1208
ssS'031637c4-655be58e'
p1545
(dp1546
g3
F40.078333
sg4
I1203
ssS'01213e45-1292773a'
p1547
(dp1548
g3
F40.135
sg4
I1212
ssS'007c01ea-a02f29ef'
p1549
(dp1550
g3
F39.255
sg4
I1178
ssS'02fd08c1-f0e81827'
p1551
(dp1552
g3
F40.096667
sg4
I1209
ssS'0711ab13-ff3633ab'
p1553
(dp1554
g3
F40.163333
sg4
I1209
ssS'02621ea2-e25d54a0'
p1555
(dp1556
g3
F40.163333
sg4
I1209
ssS'025ecc28-3d894af1'
p1557
(dp1558
g3
F20.248333
sg4
I605
ssS'03a5a702-81bc7402'
p1559
(dp1560
g3
F20.115
sg4
I607
ssS'06cbfcda-957a0b95'
p1561
(dp1562
g3
F40.296667
sg4
I1214
ssS'03a4b3d3-277756e7'
p1563
(dp1564
g3
F20.14
sg4
I608
ssS'039c5dcd-86d8c0e2'
p1565
(dp1566
g3
F22.878333
sg4
I687
ssS'059ec458-3b7e13f2'
p1567
(dp1568
g3
F20.448333
sg4
I612
ssS'00d1bafa-1b47b41c'
p1569
(dp1570
g3
F40.096667
sg4
I1209
ssS'025b2ded-0f6cbb6b'
p1571
(dp1572
g3
F40.1
sg4
I1198
ssS'076399f2-3cc0e470'
p1573
(dp1574
g3
F40.096667
sg4
I1207
ssS'06299d10-4eaf8f1e'
p1575
(dp1576
g3
F20.186667
sg4
I608
ssS'015fe6c9-48a58255'
p1577
(dp1578
g3
F40.066667
sg4
I1206
ssS'05f073fb-2d3ccdce'
p1579
(dp1580
g3
F20.05
sg4
I603
ssS'006d6f8e-4759e8c1'
p1581
(dp1582
g3
F40.221667
sg4
I1209
ssS'04c6b8fa-d242db71'
p1583
(dp1584
g3
F40.03
sg4
I1205
ssS'049f2340-26fc3c56'
p1585
(dp1586
g3
F40.296667
sg4
I1210
ssS'021f503c-012d941f'
p1587
(dp1588
g3
F40.151667
sg4
I1200
ssS'06ff7d61-734f0911'
p1589
(dp1590
g3
F40.2
sg4
I1193
ssS'01d25bbc-a9f903ba'
p1591
(dp1592
g3
F40.09
sg4
I1202
ssS'07380221-064f762b'
p1593
(dp1594
g3
F40.13
sg4
I1212
ssS'074b3ead-8243b693'
p1595
(dp1596
g3
F40.263333
sg4
I1208
ssS'01e6933c-3e2e1ee5'
p1597
(dp1598
g3
F20.345
sg4
I614
ssS'067ebca1-36bf70d8'
p1599
(dp1600
g3
F20.265
sg4
I612
ssS'036f07d5-a41ae610'
p1601
(dp1602
g3
F40.066667
sg4
I1208
ssS'02927def-14c4c3cb'
p1603
(dp1604
g3
F40.361667
sg4
I1219
ssS'029407d6-ca53347d'
p1605
(dp1606
g3
F40.063333
sg4
I1208
ssS'0573e933-a8b4cf7d'
p1607
(dp1608
g3
F40.135
sg4
I1209
ssS'07254f2e-ad7e4ddb'
p1609
(dp1610
g3
F40.333333
sg4
I1210
ssS'039f729b-7d2ba342'
p1611
(dp1612
g3
F40.205
sg4
I1212
ssS'07afa351-aa604b11'
p1613
(dp1614
g3
F40.065
sg4
I1192
ssS'01ab0f6d-a46b9d78'
p1615
(dp1616
g3
F40.13
sg4
I1212
ssS'009215e2-74688f8a'
p1617
(dp1618
g3
F40.141667
sg4
I1212
ssS'04f8ceb2-950fe6d8'
p1619
(dp1620
g3
F40.163333
sg4
I1209
ssS'0289eba3-1c552656'
p1621
(dp1622
g3
F40.096667
sg4
I1207
ssS'054575c4-e461764c'
p1623
(dp1624
g3
F40.23
sg4
I1208
ssS'015af63d-7af26e37'
p1625
(dp1626
g3
F40.163333
sg4
I1209
ssS'01e05a91-2c9e154d'
p1627
(dp1628
g3
F40.145
sg4
I1206
ssS'0048f391-8eb40ca6'
p1629
(dp1630
g3
F40.33
sg4
I1219
ssS'06ff7d61-1fa52d1c'
p1631
(dp1632
g3
F40.248333
sg4
I1204
ssS'02ac138c-6bc72d56'
p1633
(dp1634
g3
F40.23
sg4
I1210
ssS'018aca44-034f1175'
p1635
(dp1636
g3
F40.098333
sg4
I1210
ssS'06be45d5-cd085139'
p1637
(dp1638
g3
F40.163333
sg4
I1209
ssS'021c4a16-f3a34ff5'
p1639
(dp1640
g3
F40.073333
sg4
I1205
ssS'00a820ef-d655700e'
p1641
(dp1642
g3
F40.085
sg4
I1210
ssS'064bad4e-a702a4fa'
p1643
(dp1644
g3
F40.131667
sg4
I1207
ssS'05640976-d1ce1090'
p1645
(dp1646
g3
F40.13
sg4
I1204
ssS'02514ff2-5fafa3bc'
p1647
(dp1648
g3
F40.271667
sg4
I1210
ssS'06ec79fd-7b557fdf'
p1649
(dp1650
g3
F40.096667
sg4
I1206
ssS'019d6206-d5de804a'
p1651
(dp1652
g3
F40.131667
sg4
I1204
ssS'02b1ab3d-e93996c2'
p1653
(dp1654
g3
F20.315
sg4
I617
ssS'07184fbb-1bf770ba'
p1655
(dp1656
g3
F40.18
sg4
I1205
ssS'00e42886-b826e91d'
p1657
(dp1658
g3
F40.29
sg4
I1208
ssS'00e42886-bd5ed543'
p1659
(dp1660
g3
F40.096667
sg4
I1207
ssS'039f729b-e5d9aec8'
p1661
(dp1662
g3
F40.263333
sg4
I1210
ssS'06d501fd-73489e78'
p1663
(dp1664
g3
F40.03
sg4
I1203
ssS'042005ab-c83ca504'
p1665
(dp1666
g3
F40.163333
sg4
I1207
ssS'04076a65-9f16243e'
p1667
(dp1668
g3
F37.561667
sg4
I1127
ssS'07cacc74-c91c4761'
p1669
(dp1670
g3
F40.125
sg4
I1197
ssS'07cacc74-c8b09a29'
p1671
(dp1672
g3
F40.128333
sg4
I1200
ssS'044c32cf-7afc4028'
p1673
(dp1674
g3
F20.348333
sg4
I613
ssS'070383db-2f4f6ade'
p1675
(dp1676
g3
F40.096667
sg4
I1205
ssS'076399f2-fb3e745b'
p1677
(dp1678
g3
F40.138333
sg4
I1199
ssS'039f729b-8878b974'
p1679
(dp1680
g3
F40.011667
sg4
I1204
ssS'05584a52-aa126299'
p1681
(dp1682
g3
F40.063333
sg4
I1205
ssS'0719a2ec-f12c90bb'
p1683
(dp1684
g3
F40.196667
sg4
I1208
ssS'009215e2-8500bd0b'
p1685
(dp1686
g3
F40.06
sg4
I1209
ssS'05e2d74c-9e1ed30d'
p1687
(dp1688
g3
F20.116667
sg4
I604
ssS'07f00d34-6155d2d2'
p1689
(dp1690
g3
F40.155
sg4
I1207
ssS'01638325-0272a4d0'
p1691
(dp1692
g3
F40.228333
sg4
I1209
ssS'0710389f-2a7ff2be'
p1693
(dp1694
g3
F40.261667
sg4
I1208
ssS'009b6a87-b15675e2'
p1695
(dp1696
g3
F40.223333
sg4
I1211
ssS'04076a65-79b349d4'
p1697
(dp1698
g3
F40.083333
sg4
I1193
ssS'036e699b-cc9cb9ff'
p1699
(dp1700
g3
F40.095
sg4
I1196
ssS'0725b3e1-e2d1e6af'
p1701
(dp1702
g3
F40.03
sg4
I1204
ssS'06299d10-be057929'
p1703
(dp1704
g3
F40.195
sg4
I1208
ssS'07ce2f8f-44e5f0d4'
p1705
(dp1706
g3
F20.348333
sg4
I609
ssS'066557f7-734f81af'
p1707
(dp1708
g3
F40.065
sg4
I1190
ssS'014070bf-4de0af14'
p1709
(dp1710
g3
F40.065
sg4
I1197
ssS'02b7b9ee-a2aba88b'
p1711
(dp1712
g3
F40.181667
sg4
I1198
ssS'0209c510-5ef87f7a'
p1713
(dp1714
g3
F40.093333
sg4
I1210
ssS'02d338b7-b5a62425'
p1715
(dp1716
g3
F40.096667
sg4
I1204
ssS'039f729b-0fb582da'
p1717
(dp1718
g3
F40.146667
sg4
I1207
ssS'0725b3e1-9e3a1eee'
p1719
(dp1720
g3
F40.043333
sg4
I1196
ssS'006a7635-c42f9f97'
p1721
(dp1722
g3
F40.136667
sg4
I1208
ssS'00f42f6b-b1ca1f6c'
p1723
(dp1724
g3
F40.085
sg4
I1202
ssS'02097021-05dcbf23'
p1725
(dp1726
g3
F40.195
sg4
I1211
ssS'054bcdd2-d62b4b62'
p1727
(dp1728
g3
F40.198333
sg4
I1206
ssS'031637c4-9b8207b3'
p1729
(dp1730
g3
F40.355
sg4
I1218
ssS'05476b39-9d783f66'
p1731
(dp1732
g3
F20.415
sg4
I611
ssS'01ab8b1e-f93e10a7'
p1733
(dp1734
g3
F20.415
sg4
I611
ssS'06ac374f-364c820e'
p1735
(dp1736
g3
F20.081667
sg4
I604
ssS'065992a2-2002dbea'
p1737
(dp1738
g3
F40.095
sg4
I1203
ssS'0480f92e-6da53797'
p1739
(dp1740
g3
F40.21
sg4
I1201
ssS'08022699-557eec00'
p1741
(dp1742
g3
F40.086667
sg4
I1205
ssS'0603e6ca-2a8fd650'
p1743
(dp1744
g3
F40.28
sg4
I1212
ssS'06d501fd-fd237e38'
p1745
(dp1746
g3
F20.748333
sg4
I621
ssS'02f208e7-10e796c8'
p1747
(dp1748
g3
F40.095
sg4
I1205
ssS'07a3c8b9-28eeac9f'
p1749
(dp1750
g3
F20.181667
sg4
I607
ssS'08008acf-6f841581'
p1751
(dp1752
g3
F20.131667
sg4
I610
ssS'06257efc-a0ad911e'
p1753
(dp1754
g3
F40.028333
sg4
I1203
ssS'0501cda3-5e493eaa'
p1755
(dp1756
g3
F40.146667
sg4
I1208
ssS'023a70d5-cde2a67a'
p1757
(dp1758
g3
F40.088333
sg4
I1196
ssS'0070bc56-8d8cfd82'
p1759
(dp1760
g3
F20.081667
sg4
I603
ssS'018aca44-80b7c751'
p1761
(dp1762
g3
F40.111667
sg4
I1210
ssS'03935c73-6fad10a2'
p1763
(dp1764
g3
F40.26
sg4
I1213
ssS'06924f46-7f03bcdc'
p1765
(dp1766
g3
F40.12
sg4
I1203
ssS'07707ea5-93f88fca'
p1767
(dp1768
g3
F40.071667
sg4
I1207
ssS'01306b58-86832830'
p1769
(dp1770
g3
F40.08
sg4
I1205
ssS'0573f031-8ef23cf6'
p1771
(dp1772
g3
F40.096667
sg4
I1206
ssS'013aba02-3fbd03ff'
p1773
(dp1774
g3
F40.225
sg4
I1210
ssS'039f729b-dce2ffeb'
p1775
(dp1776
g3
F40.046667
sg4
I1204
ssS'02d478d1-5ffc4cb0'
p1777
(dp1778
g3
F40.2
sg4
I1205
ssS'009215e2-3b7c6b86'
p1779
(dp1780
g3
F40.163333
sg4
I1208
ssS'0714456d-dea58ea0'
p1781
(dp1782
g3
F26.453333
sg4
I791
ssS'070383db-e4ac3ced'
p1783
(dp1784
g3
F40.213333
sg4
I1211
ssS'0453391a-58028b18'
p1785
(dp1786
g3
F40.066667
sg4
I1208
ssS'073d4e2a-16e9d952'
p1787
(dp1788
g3
F40.113333
sg4
I1203
ssS'0480f92e-1ab5242a'
p1789
(dp1790
g3
F40.185
sg4
I1210
ssS'06d501fd-94c914c9'
p1791
(dp1792
g3
F40.22
sg4
I1209
ssS'065e0b3e-9ab831d1'
p1793
(dp1794
g3
F21.215
sg4
I637
ssS'0308ce2b-1bfd979e'
p1795
(dp1796
g3
F20.055
sg4
I609
ssS'0442fc4d-cf3c321f'
p1797
(dp1798
g3
F40.035
sg4
I1209
ssS'029e1042-e795c758'
p1799
(dp1800
g3
F40.03
sg4
I1203
ssS'0373c15f-d7b291b8'
p1801
(dp1802
g3
F40.016667
sg4
I1191
ssS'065e0b3e-2ac56f6f'
p1803
(dp1804
g3
F40.08
sg4
I1207
ssS'067f8fb0-299024f0'
p1805
(dp1806
g3
F20.078333
sg4
I608
ssS'03106632-a41c6be9'
p1807
(dp1808
g3
F40.096667
sg4
I1204
ssS'007eddfc-f8a80310'
p1809
(dp1810
g3
F40.163333
sg4
I1208
ssS'011a2aa0-677a45ae'
p1811
(dp1812
g3
F40.26
sg4
I1198
ssS'018d962a-d5b47dd3'
p1813
(dp1814
g3
F20.048333
sg4
I599
ssS'076399f2-4ee5c4fe'
p1815
(dp1816
g3
F40.218333
sg4
I1210
ssS'06011abb-2ef4cced'
p1817
(dp1818
g3
F40.211667
sg4
I1207
ssS'04dc483a-f595d9f1'
p1819
(dp1820
g3
F40.02
sg4
I1200
ssS'06cb522f-aaed5ecf'
p1821
(dp1822
g3
F40.333333
sg4
I1211
ssS'0193a01e-90028c79'
p1823
(dp1824
g3
F40.096667
sg4
I1193
ssS'01306b58-1c8ac4c9'
p1825
(dp1826
g3
F40.223333
sg4
I1210
ssS'045d32b5-31a5a2dd'
p1827
(dp1828
g3
F20.143333
sg4
I610
ssS'03b5e695-11d43622'
p1829
(dp1830
g3
F40.221667
sg4
I1207
ssS'03715d08-cb7c434d'
p1831
(dp1832
g3
F20.08
sg4
I607
ssS'039f729b-913a68c6'
p1833
(dp1834
g3
F40.156667
sg4
I1204
ss.